; Function Attrs: inlinehint nounwind sspstrong uwtable
define internal void @gen_helper_atomic_cmpxchgo_le(ptr noundef %0, ptr noundef %1, ptr noundef %2, ptr noundef %3, ptr noundef %4, ptr noundef %5) #4 {
  %7 = load ptr, ptr @helper_info_atomic_cmpxchgo_le, align 8
  %8 = tail call align 8 ptr @llvm.threadlocal.address.p0(ptr align 8 @tcg_ctx)
  %9 = load ptr, ptr %8, align 8
  %10 = ptrtoint ptr %0 to i64
  %11 = getelementptr inbounds nuw i8, ptr %9, i64 %10
  %12 = ptrtoint ptr %1 to i64
  %13 = getelementptr inbounds nuw i8, ptr %9, i64 %12
  %14 = ptrtoint ptr %2 to i64
  %15 = getelementptr inbounds nuw i8, ptr %9, i64 %14
  %16 = ptrtoint ptr %3 to i64
  %17 = getelementptr inbounds nuw i8, ptr %9, i64 %16
  %18 = ptrtoint ptr %4 to i64
  %19 = getelementptr inbounds nuw i8, ptr %9, i64 %18
  %20 = ptrtoint ptr %5 to i64
  %21 = getelementptr inbounds nuw i8, ptr %9, i64 %20
  tail call void @tcg_gen_call5(ptr noundef %7, ptr noundef nonnull @helper_info_atomic_cmpxchgo_le, ptr noundef %11, ptr noundef %13, ptr noundef %15, ptr noundef %17, ptr noundef %19, ptr noundef %21) #6
  ret void
}